target datalayout = "e-m:e-p270:32:32-p271:32:32-p272:64:64-i64:64-i128:128-f80:128-n8:16:32:64-S128"
target triple = "x86_64-pc-linux-gnu"

%struct.CABACContext = type { i32, i32, ptr, ptr, ptr }

@ff_h264_cabac_tables = external constant [1343 x i8], align 16

; Function Attrs: nounwind uwtable
define internal void @refill2(ptr noundef %0) #0 {
  %2 = alloca ptr, align 8
  %3 = alloca i32, align 4
  %4 = alloca i32, align 4
  store ptr %0, ptr %2, align 8, !tbaa !173
  call void @llvm.lifetime.start.p0(i64 4, ptr %3) #9
  call void @llvm.lifetime.start.p0(i64 4, ptr %4) #9
  %5 = load ptr, ptr %2, align 8, !tbaa !173
  %6 = getelementptr inbounds nuw %struct.CABACContext, ptr %5, i32 0, i32 0
  %7 = load i32, ptr %6, align 8, !tbaa !201
  %8 = load ptr, ptr %2, align 8, !tbaa !173
  %9 = getelementptr inbounds nuw %struct.CABACContext, ptr %8, i32 0, i32 0
  %10 = load i32, ptr %9, align 8, !tbaa !201
  %11 = sub nsw i32 %10, 1
  %12 = xor i32 %7, %11
  store i32 %12, ptr %4, align 4, !tbaa !77
  %13 = load i32, ptr %4, align 4, !tbaa !77
  %14 = lshr i32 %13, 15
  %15 = zext i32 %14 to i64
  %16 = getelementptr inbounds nuw i8, ptr @ff_h264_cabac_tables, i64 %15
  %17 = load i8, ptr %16, align 1, !tbaa !81
  %18 = zext i8 %17 to i32
  %19 = sub nsw i32 7, %18
  store i32 %19, ptr %3, align 4, !tbaa !77
  store i32 -65535, ptr %4, align 4, !tbaa !77
  %20 = load ptr, ptr %2, align 8, !tbaa !173
  %21 = getelementptr inbounds nuw %struct.CABACContext, ptr %20, i32 0, i32 3
  %22 = load ptr, ptr %21, align 8, !tbaa !202
  %23 = getelementptr inbounds i8, ptr %22, i64 0
  %24 = load i8, ptr %23, align 1, !tbaa !81
  %25 = zext i8 %24 to i32
  %26 = shl i32 %25, 9
  %27 = load ptr, ptr %2, align 8, !tbaa !173
  %28 = getelementptr inbounds nuw %struct.CABACContext, ptr %27, i32 0, i32 3
  %29 = load ptr, ptr %28, align 8, !tbaa !202
  %30 = getelementptr inbounds i8, ptr %29, i64 1
  %31 = load i8, ptr %30, align 1, !tbaa !81
  %32 = zext i8 %31 to i32
  %33 = shl i32 %32, 1
  %34 = add nsw i32 %26, %33
  %35 = load i32, ptr %4, align 4, !tbaa !77
  %36 = add i32 %35, %34
  store i32 %36, ptr %4, align 4, !tbaa !77
  %37 = load i32, ptr %4, align 4, !tbaa !77
  %38 = load i32, ptr %3, align 4, !tbaa !77
  %39 = shl i32 %37, %38
  %40 = load ptr, ptr %2, align 8, !tbaa !173
  %41 = getelementptr inbounds nuw %struct.CABACContext, ptr %40, i32 0, i32 0
  %42 = load i32, ptr %41, align 8, !tbaa !201
  %43 = add i32 %42, %39
  store i32 %43, ptr %41, align 8, !tbaa !201
  %44 = load ptr, ptr %2, align 8, !tbaa !173
  %45 = getelementptr inbounds nuw %struct.CABACContext, ptr %44, i32 0, i32 3
  %46 = load ptr, ptr %45, align 8, !tbaa !202
  %47 = getelementptr inbounds i8, ptr %46, i64 2
  store ptr %47, ptr %45, align 8, !tbaa !202
  call void @llvm.lifetime.end.p0(i64 4, ptr %4) #9
  call void @llvm.lifetime.end.p0(i64 4, ptr %3) #9
  ret void
}

; Function Attrs: alwaysinline nounwind uwtable
define internal i32 @get_cabac_inline(ptr noundef %0, ptr noundef %1) #6 {
  %3 = alloca ptr, align 8
  %4 = alloca ptr, align 8
  %5 = alloca i32, align 4
  %6 = alloca i32, align 4
  %7 = alloca i32, align 4
  %8 = alloca i32, align 4
  store ptr %0, ptr %3, align 8, !tbaa !173
  store ptr %1, ptr %4, align 8, !tbaa !79
  call void @llvm.lifetime.start.p0(i64 4, ptr %5) #9
  %9 = load ptr, ptr %4, align 8, !tbaa !79
  %10 = load i8, ptr %9, align 1, !tbaa !81
  %11 = zext i8 %10 to i32
  store i32 %11, ptr %5, align 4, !tbaa !77
  call void @llvm.lifetime.start.p0(i64 4, ptr %6) #9
  %12 = load ptr, ptr %3, align 8, !tbaa !173
  %13 = getelementptr inbounds nuw %struct.CABACContext, ptr %12, i32 0, i32 1
  %14 = load i32, ptr %13, align 4, !tbaa !200
  %15 = and i32 %14, 192
  %16 = mul nsw i32 2, %15
  %17 = load i32, ptr %5, align 4, !tbaa !77
  %18 = add nsw i32 %16, %17
  %19 = sext i32 %18 to i64
  %20 = getelementptr inbounds i8, ptr getelementptr (i8, ptr @ff_h264_cabac_tables, i64 512), i64 %19
  %21 = load i8, ptr %20, align 1, !tbaa !81
  %22 = zext i8 %21 to i32
  store i32 %22, ptr %6, align 4, !tbaa !77
  call void @llvm.lifetime.start.p0(i64 4, ptr %7) #9
  call void @llvm.lifetime.start.p0(i64 4, ptr %8) #9
  %23 = load i32, ptr %6, align 4, !tbaa !77
  %24 = load ptr, ptr %3, align 8, !tbaa !173
  %25 = getelementptr inbounds nuw %struct.CABACContext, ptr %24, i32 0, i32 1
  %26 = load i32, ptr %25, align 4, !tbaa !200
  %27 = sub nsw i32 %26, %23
  store i32 %27, ptr %25, align 4, !tbaa !200
  %28 = load ptr, ptr %3, align 8, !tbaa !173
  %29 = getelementptr inbounds nuw %struct.CABACContext, ptr %28, i32 0, i32 1
  %30 = load i32, ptr %29, align 4, !tbaa !200
  %31 = shl i32 %30, 17
  %32 = load ptr, ptr %3, align 8, !tbaa !173
  %33 = getelementptr inbounds nuw %struct.CABACContext, ptr %32, i32 0, i32 0
  %34 = load i32, ptr %33, align 8, !tbaa !201
  %35 = sub nsw i32 %31, %34
  %36 = ashr i32 %35, 31
  store i32 %36, ptr %8, align 4, !tbaa !77
  %37 = load ptr, ptr %3, align 8, !tbaa !173
  %38 = getelementptr inbounds nuw %struct.CABACContext, ptr %37, i32 0, i32 1
  %39 = load i32, ptr %38, align 4, !tbaa !200
  %40 = shl i32 %39, 17
  %41 = load i32, ptr %8, align 4, !tbaa !77
  %42 = and i32 %40, %41
  %43 = load ptr, ptr %3, align 8, !tbaa !173
  %44 = getelementptr inbounds nuw %struct.CABACContext, ptr %43, i32 0, i32 0
  %45 = load i32, ptr %44, align 8, !tbaa !201
  %46 = sub nsw i32 %45, %42
  store i32 %46, ptr %44, align 8, !tbaa !201
  %47 = load i32, ptr %6, align 4, !tbaa !77
  %48 = load ptr, ptr %3, align 8, !tbaa !173
  %49 = getelementptr inbounds nuw %struct.CABACContext, ptr %48, i32 0, i32 1
  %50 = load i32, ptr %49, align 4, !tbaa !200
  %51 = sub nsw i32 %47, %50
  %52 = load i32, ptr %8, align 4, !tbaa !77
  %53 = and i32 %51, %52
  %54 = load ptr, ptr %3, align 8, !tbaa !173
  %55 = getelementptr inbounds nuw %struct.CABACContext, ptr %54, i32 0, i32 1
  %56 = load i32, ptr %55, align 4, !tbaa !200
  %57 = add nsw i32 %56, %53
  store i32 %57, ptr %55, align 4, !tbaa !200
  %58 = load i32, ptr %8, align 4, !tbaa !77
  %59 = load i32, ptr %5, align 4, !tbaa !77
  %60 = xor i32 %59, %58
  store i32 %60, ptr %5, align 4, !tbaa !77
  %61 = load i32, ptr %5, align 4, !tbaa !77
  %62 = sext i32 %61 to i64
  %63 = getelementptr inbounds i8, ptr getelementptr inbounds (i8, ptr getelementptr (i8, ptr @ff_h264_cabac_tables, i64 1024), i64 128), i64 %62
  %64 = load i8, ptr %63, align 1, !tbaa !81
  %65 = load ptr, ptr %4, align 8, !tbaa !79
  store i8 %64, ptr %65, align 1, !tbaa !81
  %66 = load i32, ptr %5, align 4, !tbaa !77
  %67 = and i32 %66, 1
  store i32 %67, ptr %7, align 4, !tbaa !77
  %68 = load ptr, ptr %3, align 8, !tbaa !173
  %69 = getelementptr inbounds nuw %struct.CABACContext, ptr %68, i32 0, i32 1
  %70 = load i32, ptr %69, align 4, !tbaa !200
  %71 = sext i32 %70 to i64
  %72 = getelementptr inbounds i8, ptr @ff_h264_cabac_tables, i64 %71
  %73 = load i8, ptr %72, align 1, !tbaa !81
  %74 = zext i8 %73 to i32
  store i32 %74, ptr %8, align 4, !tbaa !77
  %75 = load i32, ptr %8, align 4, !tbaa !77
  %76 = load ptr, ptr %3, align 8, !tbaa !173
  %77 = getelementptr inbounds nuw %struct.CABACContext, ptr %76, i32 0, i32 1
  %78 = load i32, ptr %77, align 4, !tbaa !200
  %79 = shl i32 %78, %75
  store i32 %79, ptr %77, align 4, !tbaa !200
  %80 = load i32, ptr %8, align 4, !tbaa !77
  %81 = load ptr, ptr %3, align 8, !tbaa !173
  %82 = getelementptr inbounds nuw %struct.CABACContext, ptr %81, i32 0, i32 0
  %83 = load i32, ptr %82, align 8, !tbaa !201
  %84 = shl i32 %83, %80
  store i32 %84, ptr %82, align 8, !tbaa !201
  %85 = load ptr, ptr %3, align 8, !tbaa !173
  %86 = getelementptr inbounds nuw %struct.CABACContext, ptr %85, i32 0, i32 0
  %87 = load i32, ptr %86, align 8, !tbaa !201
  %88 = and i32 %87, 65535
  %89 = icmp ne i32 %88, 0
  br i1 %89, label %92, label %90

90:                                               ; preds = %2
  %91 = load ptr, ptr %3, align 8, !tbaa !173
  call void @refill2(ptr noundef %91)
  br label %92

92:                                               ; preds = %90, %2
  %93 = load i32, ptr %7, align 4, !tbaa !77
  call void @llvm.lifetime.end.p0(i64 4, ptr %8) #9
  call void @llvm.lifetime.end.p0(i64 4, ptr %7) #9
  call void @llvm.lifetime.end.p0(i64 4, ptr %6) #9
  call void @llvm.lifetime.end.p0(i64 4, ptr %5) #9
  ret i32 %93
}

; Function Attrs: noinline nounwind uwtable
define internal i32 @get_cabac_noinline(ptr noundef %0, ptr noundef %1) #3 {
  %3 = alloca ptr, align 8
  %4 = alloca ptr, align 8
  store ptr %0, ptr %3, align 8, !tbaa !173
  store ptr %1, ptr %4, align 8, !tbaa !79
  %5 = load ptr, ptr %3, align 8, !tbaa !173
  %6 = load ptr, ptr %4, align 8, !tbaa !79
  %7 = call i32 @get_cabac_inline(ptr noundef %5, ptr noundef %6)
  ret i32 %7
}