; Function Attrs: mustprogress nofree noinline norecurse nosync nounwind willreturn memory(read, argmem: readwrite, inaccessiblemem: none) uwtable
define internal fastcc range(i32 0, 2) i32 @get_cabac_noinline(ptr noundef captures(none) %0, ptr noundef captures(none) %1) unnamed_addr #4 {
  %3 = load i8, ptr %1, align 1, !tbaa !77
  %4 = zext i8 %3 to i32
  %5 = getelementptr inbounds nuw i8, ptr %0, i64 4
  %6 = load i32, ptr %5, align 4, !tbaa !138
  %7 = shl i32 %6, 1
  %8 = and i32 %7, 384
  %9 = add nuw nsw i32 %8, %4
  %10 = zext nneg i32 %9 to i64
  %11 = getelementptr inbounds nuw i8, ptr getelementptr inbounds nuw (i8, ptr @ff_h264_cabac_tables, i64 512), i64 %10
  %12 = load i8, ptr %11, align 1, !tbaa !77
  %13 = zext i8 %12 to i32
  %14 = sub nsw i32 %6, %13
  %15 = shl i32 %14, 17
  %16 = load i32, ptr %0, align 8, !tbaa !139
  %17 = icmp slt i32 %15, %16
  %18 = sext i1 %17 to i32
  %19 = select i1 %17, i32 %15, i32 0
  %20 = sub nsw i32 %16, %19
  store i32 %20, ptr %0, align 8, !tbaa !139
  %21 = select i1 %17, i32 %13, i32 %14
  store i32 %21, ptr %5, align 4, !tbaa !138
  %22 = xor i32 %18, %4
  %23 = sext i32 %22 to i64
  %24 = getelementptr inbounds i8, ptr getelementptr inbounds nuw (i8, ptr @ff_h264_cabac_tables, i64 1152), i64 %23
  %25 = load i8, ptr %24, align 1, !tbaa !77
  store i8 %25, ptr %1, align 1, !tbaa !77
  %26 = load i32, ptr %5, align 4, !tbaa !138
  %27 = sext i32 %26 to i64
  %28 = getelementptr inbounds i8, ptr @ff_h264_cabac_tables, i64 %27
  %29 = load i8, ptr %28, align 1, !tbaa !77
  %30 = zext i8 %29 to i32
  %31 = shl i32 %26, %30
  store i32 %31, ptr %5, align 4, !tbaa !138
  %32 = load i32, ptr %0, align 8, !tbaa !139
  %33 = shl i32 %32, %30
  store i32 %33, ptr %0, align 8, !tbaa !139
  %34 = and i32 %33, 65535
  %.not.i = icmp eq i32 %34, 0
  br i1 %.not.i, label %35, label %get_cabac_inline.exit

35:                                               ; preds = %2
  %36 = add nsw i32 %33, -1
  %37 = xor i32 %36, %33
  %38 = lshr i32 %37, 15
  %39 = zext nneg i32 %38 to i64
  %40 = getelementptr inbounds nuw i8, ptr @ff_h264_cabac_tables, i64 %39
  %41 = load i8, ptr %40, align 1, !tbaa !77
  %42 = zext i8 %41 to i32
  %43 = sub nsw i32 7, %42
  %44 = getelementptr inbounds nuw i8, ptr %0, i64 16
  %45 = load ptr, ptr %44, align 8, !tbaa !140
  %46 = load i8, ptr %45, align 1, !tbaa !77
  %47 = zext i8 %46 to i32
  %48 = shl nuw nsw i32 %47, 9
  %49 = getelementptr inbounds nuw i8, ptr %45, i64 1
  %50 = load i8, ptr %49, align 1, !tbaa !77
  %51 = zext i8 %50 to i32
  %52 = shl nuw nsw i32 %51, 1
  %53 = or disjoint i32 %52, %48
  %54 = add nsw i32 %53, -65535
  %55 = shl nsw i32 %54, %43
  %56 = add i32 %55, %33
  store i32 %56, ptr %0, align 8, !tbaa !139
  %57 = getelementptr inbounds nuw i8, ptr %45, i64 2
  store ptr %57, ptr %44, align 8, !tbaa !140
  br label %get_cabac_inline.exit

get_cabac_inline.exit:                            ; preds = %2, %35
  %58 = and i32 %22, 1
  ret i32 %58
}